Certificate:
    Data:
        Version: 3 (0x2)
        Serial Number: 1 (0x1)
    Signature Algorithm: md5WithRSAEncryption
        Issuer: C=FR, ST=Radius, L=Somewhere, O=Example Inc./emailAddress=admin@example.com, CN=Example Certificate Authority
        Validity
            Not Before: Dec 26 08:30:21 2014 GMT
            Not After : Dec 26 08:30:21 2015 GMT
        Subject: C=FR, ST=Radius, O=Example Inc., CN=Example Server Certificate/emailAddress=admin@example.com
        Subject Public Key Info:
            Public Key Algorithm: rsaEncryption
                Public-Key: (2048 bit)
                Modulus:
                    00:b0:b8:36:ad:ac:73:5f:68:f0:32:e1:a4:c8:a7:
                    35:df:e1:85:3c:fa:cc:35:14:b8:f3:3a:c7:3c:6a:
                    b3:ca:a5:be:b4:40:18:ae:d5:2f:aa:a2:f6:ab:cb:
                    a3:5c:e3:cd:b4:61:de:09:52:e1:26:65:66:f1:92:
                    5b:6f:42:88:aa:0e:98:4f:a8:3b:04:cd:25:24:ac:
                    f5:7c:1f:5d:1f:b8:1b:b8:2d:7b:23:68:1f:5a:c1:
                    5d:c2:b5:b8:93:23:f7:36:82:26:a2:f9:b3:2a:0b:
                    26:a8:c7:a2:69:30:87:1c:bd:37:64:a7:fa:e1:88:
                    64:4e:e5:17:da:c1:79:20:a1:fe:bf:4e:f8:92:c4:
                    ac:10:9e:5b:f6:d7:df:e5:2f:3c:40:43:96:21:b1:
                    c8:84:f0:2c:13:40:28:1f:97:67:0d:24:0d:bf:4e:
                    97:91:04:7c:ee:73:c1:72:da:44:b5:c2:68:c0:25:
                    2e:c7:f3:1b:6c:71:e1:56:af:30:a9:36:35:cb:54:
                    cd:74:11:f6:2b:40:71:17:14:c8:45:06:af:b8:7a:
                    e9:b9:7c:38:0b:99:90:c2:bb:5d:07:d4:d7:64:32:
                    55:43:0f:e5:da:2a:a0:9b:04:a3:1d:c9:6e:32:44:
                    22:f8:06:39:56:d9:04:60:19:cf:31:7e:7f:71:f7:
                    51:d7
                Exponent: 65537 (0x10001)
        X509v3 extensions:
            X509v3 Extended Key Usage: 
                TLS Web Server Authentication
    Signature Algorithm: md5WithRSAEncryption
         5f:d6:a8:7d:5e:64:a1:67:16:90:f4:0f:83:b5:c5:33:b6:5e:
         af:28:c0:ee:56:07:c5:a6:2f:d0:77:99:a3:b2:b8:92:eb:fe:
         50:f1:4b:54:51:6f:9e:e2:04:24:44:21:e2:ee:29:36:41:bc:
         f9:2c:23:39:37:3e:18:95:b6:98:1a:16:13:14:4a:b8:d9:ac:
         36:52:4f:ec:b2:ad:23:4d:b7:d5:53:b2:79:04:26:13:f0:34:
         c2:b3:62:c8:26:94:b3:7b:35:d3:df:a0:be:65:12:22:61:8b:
         61:b9:64:21:7a:ec:21:63:2d:bd:a4:41:16:78:64:51:35:c3:
         44:e0:1f:66:c5:03:ca:91:ab:4b:5f:f8:fa:ed:f2:e7:81:61:
         62:87:68:70:ba:b4:6d:87:b9:ab:20:e6:8b:13:97:5d:bd:27:
         72:0f:fc:9d:67:3b:d0:33:cf:ea:d8:27:f5:24:31:47:78:23:
         ac:1b:73:62:2f:83:11:18:18:d2:86:ee:06:c1:a6:79:41:d9:
         6f:2c:6e:a7:fa:d2:94:a9:37:4c:40:84:9a:be:28:b4:ff:4a:
         36:b6:18:3b:36:0a:c1:8f:07:a7:52:03:89:60:82:0f:a3:06:
         6a:ce:71:c8:8d:b2:a8:ba:0d:12:b6:b7:8f:8c:cf:73:71:f2:
         da:19:82:eb
-----BEGIN CERTIFICATE-----
MIIDojCCAoqgAwIBAgIBATANBgkqhkiG9w0BAQQFADCBkzELMAkGA1UEBhMCRlIx
DzANBgNVBAgTBlJhZGl1czESMBAGA1UEBxMJU29tZXdoZXJlMRUwEwYDVQQKEwxF
eGFtcGxlIEluYy4xIDAeBgkqhkiG9w0BCQEWEWFkbWluQGV4YW1wbGUuY29tMSYw
JAYDVQQDEx1FeGFtcGxlIENlcnRpZmljYXRlIEF1dGhvcml0eTAeFw0xNDEyMjYw
ODMwMjFaFw0xNTEyMjYwODMwMjFaMHwxCzAJBgNVBAYTAkZSMQ8wDQYDVQQIEwZS
YWRpdXMxFTATBgNVBAoTDEV4YW1wbGUgSW5jLjEjMCEGA1UEAxMaRXhhbXBsZSBT
ZXJ2ZXIgQ2VydGlmaWNhdGUxIDAeBgkqhkiG9w0BCQEWEWFkbWluQGV4YW1wbGUu
Y29tMIIBIjANBgkqhkiG9w0BAQEFAAOCAQ8AMIIBCgKCAQEAsLg2raxzX2jwMuGk
yKc13+GFPPrMNRS48zrHPGqzyqW+tEAYrtUvqqL2q8ujXOPNtGHeCVLhJmVm8ZJb
b0KIqg6YT6g7BM0lJKz1fB9dH7gbuC17I2gfWsFdwrW4kyP3NoImovmzKgsmqMei
aTCHHL03ZKf64YhkTuUX2sF5IKH+v074ksSsEJ5b9tff5S88QEOWIbHIhPAsE0Ao
H5dnDSQNv06XkQR87nPBctpEtcJowCUux/MbbHHhVq8wqTY1y1TNdBH2K0BxFxTI
RQavuHrpuXw4C5mQwrtdB9TXZDJVQw/l2iqgmwSjHcluMkQi+AY5VtkEYBnPMX5/
cfdR1wIDAQABoxcwFTATBgNVHSUEDDAKBggrBgEFBQcDATANBgkqhkiG9w0BAQQF
AAOCAQEAX9aofV5koWcWkPQPg7XFM7ZeryjA7lYHxaYv0HeZo7K4kuv+UPFLVFFv
nuIEJEQh4u4pNkG8+SwjOTc+GJW2mBoWExRKuNmsNlJP7LKtI0231VOyeQQmE/A0
wrNiyCaUs3s109+gvmUSImGLYblkIXrsIWMtvaRBFnhkUTXDROAfZsUDypGrS1/4
+u3y54FhYodocLq0bYe5qyDmixOXXb0ncg/8nWc70DPP6tgn9SQxR3gjrBtzYi+D
ERgY0obuBsGmeUHZbyxup/rSlKk3TECEmr4otP9KNrYYOzYKwY8Hp1IDiWCCD6MG
as5xyI2yqLoNEra3j4zPc3Hy2hmC6w==
-----END CERTIFICATE-----
